; Function Attrs: nounwind uwtable
define internal ptr @branchesiter_next(ptr noundef captures(none) %0) #2 {
  %2 = getelementptr inbounds nuw i8, ptr %0, i64 24
  %3 = load i32, ptr %2, align 8, !tbaa !193
  %4 = getelementptr inbounds nuw i8, ptr %0, i64 16
  %5 = load ptr, ptr %4, align 8, !tbaa !191
  %6 = getelementptr i8, ptr %5, i64 16
  %.val = load i64, ptr %6, align 8, !tbaa !84
  %7 = sext i32 %3 to i64
  %8 = icmp sgt i64 %.val, %7
  br i1 %8, label %.lr.ph, label %.thread

.lr.ph:                                           ; preds = %1
  %9 = getelementptr inbounds nuw i8, ptr %5, i64 208
  %10 = getelementptr inbounds nuw i8, ptr %5, i64 176
  %11 = getelementptr inbounds nuw i8, ptr %5, i64 152
  br label %12

12:                                               ; preds = %.lr.ph, %94
  %13 = phi i64 [ %7, %.lr.ph ], [ %95, %94 ]
  %.02945 = phi i32 [ %3, %.lr.ph ], [ %70, %94 ]
  %.03144 = phi i32 [ 0, %.lr.ph ], [ %.233, %94 ]
  %14 = getelementptr %union._Py_CODEUNIT, ptr %9, i64 %13
  %15 = load i16, ptr %14, align 2, !tbaa !4
  %.sroa.7.0.extract.shift.i = lshr i16 %15, 8
  %.sroa.7.0.extract.trunc.i = trunc nuw i16 %.sroa.7.0.extract.shift.i to i8
  %16 = and i16 %15, 255
  %17 = icmp samesign ult i16 %16, 235
  br i1 %17, label %18, label %22

18:                                               ; preds = %12
  %19 = zext nneg i16 %16 to i64
  %20 = getelementptr [256 x i8], ptr @_PyOpcode_Deopt, i64 0, i64 %19
  %21 = load i8, ptr %20, align 1, !tbaa !33
  br label %_Py_GetBaseCodeUnit.exit

22:                                               ; preds = %12
  %23 = zext nneg i16 %16 to i32
  %trunc.i = trunc i16 %15 to i8
  switch i8 %trunc.i, label %49 [
    i8 -1, label %24
    i8 -2, label %37
  ]

24:                                               ; preds = %22
  %25 = load ptr, ptr %11, align 8, !tbaa !8
  %26 = getelementptr inbounds nuw i8, ptr %25, i64 8
  %27 = zext nneg i16 %.sroa.7.0.extract.shift.i to i64
  %28 = getelementptr [1 x ptr], ptr %26, i64 0, i64 %27
  %29 = load ptr, ptr %28, align 8, !tbaa !17
  %30 = getelementptr inbounds nuw i8, ptr %29, i64 32
  %31 = load i8, ptr %30, align 8, !tbaa !19
  %32 = zext i8 %31 to i64
  %33 = getelementptr [256 x i8], ptr @_PyOpcode_Deopt, i64 0, i64 %32
  %34 = load i8, ptr %33, align 1, !tbaa !33
  %35 = getelementptr inbounds nuw i8, ptr %29, i64 33
  %36 = load i8, ptr %35, align 1, !tbaa !35
  br label %_Py_GetBaseCodeUnit.exit

37:                                               ; preds = %22
  %38 = load ptr, ptr %10, align 8, !tbaa !26
  %39 = getelementptr inbounds nuw i8, ptr %38, i64 96
  %40 = load ptr, ptr %39, align 8, !tbaa !27
  %41 = getelementptr inbounds nuw i8, ptr %40, i64 1
  %42 = load i8, ptr %40, align 1, !tbaa !31
  %43 = zext i8 %42 to i32
  %44 = mul i32 %.02945, %43
  %45 = sext i32 %44 to i64
  %46 = getelementptr [1 x i8], ptr %41, i64 0, i64 %45
  %47 = load i8, ptr %46, align 1, !tbaa !33
  %48 = zext i8 %47 to i32
  br label %49

49:                                               ; preds = %37, %22
  %.0.i = phi i32 [ %48, %37 ], [ %23, %22 ]
  %50 = icmp eq i32 %.0.i, 239
  br i1 %50, label %51, label %58

51:                                               ; preds = %49
  %52 = load ptr, ptr %10, align 8, !tbaa !26
  %53 = getelementptr inbounds nuw i8, ptr %52, i64 112
  %54 = load ptr, ptr %53, align 8, !tbaa !34
  %55 = getelementptr i8, ptr %54, i64 %13
  %56 = load i8, ptr %55, align 1, !tbaa !33
  %57 = zext i8 %56 to i32
  br label %58

58:                                               ; preds = %51, %49
  %.1.i = phi i32 [ %57, %51 ], [ %.0.i, %49 ]
  %59 = zext nneg i32 %.1.i to i64
  %60 = getelementptr [256 x i8], ptr @DE_INSTRUMENT, i64 0, i64 %59
  %61 = load i8, ptr %60, align 1, !tbaa !33
  %.not.i = icmp eq i8 %61, 0
  br i1 %.not.i, label %62, label %_Py_GetBaseCodeUnit.exit

62:                                               ; preds = %58
  %63 = getelementptr [256 x i8], ptr @_PyOpcode_Deopt, i64 0, i64 %59
  %64 = load i8, ptr %63, align 1, !tbaa !33
  br label %_Py_GetBaseCodeUnit.exit

_Py_GetBaseCodeUnit.exit:                         ; preds = %18, %24, %58, %62
  %.sroa.0.0.i = phi i8 [ %21, %18 ], [ %34, %24 ], [ %64, %62 ], [ %61, %58 ]
  %.sroa.7.0.i = phi i8 [ %.sroa.7.0.extract.trunc.i, %18 ], [ %36, %24 ], [ %.sroa.7.0.extract.trunc.i, %62 ], [ %.sroa.7.0.extract.trunc.i, %58 ]
  %65 = add i32 %.02945, 1
  %66 = zext i8 %.sroa.0.0.i to i64
  %67 = getelementptr [256 x i8], ptr @_PyOpcode_Caches, i64 0, i64 %66
  %68 = load i8, ptr %67, align 1, !tbaa !33
  %69 = zext i8 %68 to i32
  %70 = add i32 %65, %69
  switch i8 %.sroa.0.0.i, label %94 [
    i8 68, label %71
    i8 69, label %74
    i8 97, label %84
    i8 100, label %84
    i8 98, label %84
    i8 99, label %84
  ]

71:                                               ; preds = %_Py_GetBaseCodeUnit.exit
  %.sroa.5.0.extract.trunc = zext i8 %.sroa.7.0.i to i32
  %72 = shl i32 %.03144, 8
  %73 = or disjoint i32 %72, %.sroa.5.0.extract.trunc
  br label %94

74:                                               ; preds = %_Py_GetBaseCodeUnit.exit
  %75 = shl i32 %.03144, 8
  %76 = zext i8 %.sroa.7.0.i to i32
  %77 = or disjoint i32 %75, %76
  store i32 %70, ptr %2, align 8, !tbaa !193
  %78 = add i32 %77, %70
  %79 = shl i32 %.02945, 1
  %80 = shl i32 %70, 1
  %81 = shl i32 %78, 1
  %82 = add i32 %81, 4
  %83 = tail call fastcc ptr @int_triple(i32 noundef %79, i32 noundef %80, i32 noundef %82)
  br label %.thread

84:                                               ; preds = %_Py_GetBaseCodeUnit.exit, %_Py_GetBaseCodeUnit.exit, %_Py_GetBaseCodeUnit.exit, %_Py_GetBaseCodeUnit.exit
  %85 = shl i32 %.03144, 8
  %86 = zext i8 %.sroa.7.0.i to i32
  %87 = or disjoint i32 %85, %86
  %88 = add i32 %70, 1
  store i32 %88, ptr %2, align 8, !tbaa !193
  %89 = shl i32 %.02945, 1
  %90 = shl i32 %88, 1
  %91 = add i32 %87, %70
  %92 = shl i32 %91, 1
  %93 = tail call fastcc ptr @int_triple(i32 noundef %89, i32 noundef %90, i32 noundef %92)
  br label %.thread

94:                                               ; preds = %71, %_Py_GetBaseCodeUnit.exit
  %.233 = phi i32 [ %73, %71 ], [ 0, %_Py_GetBaseCodeUnit.exit ]
  %95 = sext i32 %70 to i64
  %96 = icmp sgt i64 %.val, %95
  br i1 %96, label %12, label %.thread, !llvm.loop !196

.thread:                                          ; preds = %94, %1, %74, %84
  %.2 = phi ptr [ %83, %74 ], [ %93, %84 ], [ null, %1 ], [ null, %94 ]
  ret ptr %.2
}